(dp1
S'OriginalConfig'
p2
ccopy_reg
_reconstructor
p3
(cWMCore.Configuration
Configuration
p4
c__builtin__
object
p5
NtRp6
(dp7
S'Site'
p8
g3
(cWMCore.Configuration
ConfigSection
p9
g5
NtRp10
(dp11
S'_internal_skipChecks'
p12
I00
sS'_internal_documentation'
p13
S''
sS'_internal_settings'
p14
c__builtin__
set
p15
((lp16
S'whitelist'
p17
aS'storageSite'
p18
atRp19
sS'_internal_name'
p20
g8
sS'_internal_docstrings'
p21
(dp22
sS'_internal_children'
p23
g15
((ltRp24
sg18
S'T3_CH_CERNBOX'
p25
sS'_internal_parent_ref'
p26
Nsg17
(lp27
S'T2_US_MIT'
p28
aS'T2_US_Wisconsin'
p29
aS'T2_US_Purdue'
p30
aS'T2_US_UCSD'
p31
aS'T2_US_Caltech'
p32
aS'T2_US_Nebraska'
p33
asbsS'_internal_sections'
p34
(lp35
S'General'
p36
aS'JobType'
p37
aS'Data'
p38
ag8
asg36
g3
(g9
g5
NtRp39
(dp40
S'workArea'
p41
S'crab2018'
p42
sg12
I00
sg13
S''
sg14
g15
((lp43
g41
aS'transferLogs'
p44
aS'requestName'
p45
atRp46
sg20
g36
sg21
(dp47
sg23
g15
((ltRp48
sg45
S'MuonEG_Run2018D_lumimask'
p49
sg26
Nsg44
I00
sbsS'_internal_webapps'
p50
(lp51
sS'_internal_components'
p52
(lp53
sg38
g3
(g9
g5
NtRp54
(dp55
S'allowNonValidInputDataset'
p56
I01
sg12
I00
sS'splitting'
p57
S'FileBased'
p58
sS'unitsPerJob'
p59
I1
sg13
S''
sg14
g15
((lp60
g56
aS'publication'
p61
ag59
aS'userInputFiles'
p62
aS'ignoreLocality'
p63
aS'inputDBS'
p64
ag57
aS'outputDatasetTag'
p65
aS'totalUnits'
p66
atRp67
sg63
I01
sg20
g38
sg64
S'phys03'
p68
sg21
(dp69
sg65
g49
sg23
g15
((ltRp70
sg61
I00
sg26
Nsg62
(lp71
S'root://eosuser.cern.ch//eos/user/y/yian/MuonEG/MuonEG_Run2018D/210420_163955/0000/tree_1.root\n'
p72
aS'root://eosuser.cern.ch//eos/user/y/yian/MuonEG/MuonEG_Run2018D/210420_163955/0000/tree_10.root\n'
p73
aS'root://eosuser.cern.ch//eos/user/y/yian/MuonEG/MuonEG_Run2018D/210420_163955/0000/tree_11.root\n'
p74
aS'root://eosuser.cern.ch//eos/user/y/yian/MuonEG/MuonEG_Run2018D/210420_163955/0000/tree_12.root\n'
p75
aS'root://eosuser.cern.ch//eos/user/y/yian/MuonEG/MuonEG_Run2018D/210420_163955/0000/tree_13.root\n'
p76
aS'root://eosuser.cern.ch//eos/user/y/yian/MuonEG/MuonEG_Run2018D/210420_163955/0000/tree_14.root\n'
p77
aS'root://eosuser.cern.ch//eos/user/y/yian/MuonEG/MuonEG_Run2018D/210420_163955/0000/tree_15.root\n'
p78
aS'root://eosuser.cern.ch//eos/user/y/yian/MuonEG/MuonEG_Run2018D/210420_163955/0000/tree_16.root\n'
p79
aS'root://eosuser.cern.ch//eos/user/y/yian/MuonEG/MuonEG_Run2018D/210420_163955/0000/tree_17.root\n'
p80
aS'root://eosuser.cern.ch//eos/user/y/yian/MuonEG/MuonEG_Run2018D/210420_163955/0000/tree_18.root\n'
p81
aS'root://eosuser.cern.ch//eos/user/y/yian/MuonEG/MuonEG_Run2018D/210420_163955/0000/tree_19.root\n'
p82
aS'root://eosuser.cern.ch//eos/user/y/yian/MuonEG/MuonEG_Run2018D/210420_163955/0000/tree_2.root\n'
p83
aS'root://eosuser.cern.ch//eos/user/y/yian/MuonEG/MuonEG_Run2018D/210420_163955/0000/tree_20.root\n'
p84
aS'root://eosuser.cern.ch//eos/user/y/yian/MuonEG/MuonEG_Run2018D/210420_163955/0000/tree_21.root\n'
p85
aS'root://eosuser.cern.ch//eos/user/y/yian/MuonEG/MuonEG_Run2018D/210420_163955/0000/tree_22.root\n'
p86
aS'root://eosuser.cern.ch//eos/user/y/yian/MuonEG/MuonEG_Run2018D/210420_163955/0000/tree_23.root\n'
p87
aS'root://eosuser.cern.ch//eos/user/y/yian/MuonEG/MuonEG_Run2018D/210420_163955/0000/tree_24.root\n'
p88
aS'root://eosuser.cern.ch//eos/user/y/yian/MuonEG/MuonEG_Run2018D/210420_163955/0000/tree_25.root\n'
p89
aS'root://eosuser.cern.ch//eos/user/y/yian/MuonEG/MuonEG_Run2018D/210420_163955/0000/tree_26.root\n'
p90
aS'root://eosuser.cern.ch//eos/user/y/yian/MuonEG/MuonEG_Run2018D/210420_163955/0000/tree_27.root\n'
p91
aS'root://eosuser.cern.ch//eos/user/y/yian/MuonEG/MuonEG_Run2018D/210420_163955/0000/tree_28.root\n'
p92
aS'root://eosuser.cern.ch//eos/user/y/yian/MuonEG/MuonEG_Run2018D/210420_163955/0000/tree_29.root\n'
p93
aS'root://eosuser.cern.ch//eos/user/y/yian/MuonEG/MuonEG_Run2018D/210420_163955/0000/tree_3.root\n'
p94
aS'root://eosuser.cern.ch//eos/user/y/yian/MuonEG/MuonEG_Run2018D/210420_163955/0000/tree_30.root\n'
p95
aS'root://eosuser.cern.ch//eos/user/y/yian/MuonEG/MuonEG_Run2018D/210420_163955/0000/tree_31.root\n'
p96
aS'root://eosuser.cern.ch//eos/user/y/yian/MuonEG/MuonEG_Run2018D/210420_163955/0000/tree_32.root\n'
p97
aS'root://eosuser.cern.ch//eos/user/y/yian/MuonEG/MuonEG_Run2018D/210420_163955/0000/tree_33.root\n'
p98
aS'root://eosuser.cern.ch//eos/user/y/yian/MuonEG/MuonEG_Run2018D/210420_163955/0000/tree_34.root\n'
p99
aS'root://eosuser.cern.ch//eos/user/y/yian/MuonEG/MuonEG_Run2018D/210420_163955/0000/tree_35.root\n'
p100
aS'root://eosuser.cern.ch//eos/user/y/yian/MuonEG/MuonEG_Run2018D/210420_163955/0000/tree_36.root\n'
p101
aS'root://eosuser.cern.ch//eos/user/y/yian/MuonEG/MuonEG_Run2018D/210420_163955/0000/tree_37.root\n'
p102
aS'root://eosuser.cern.ch//eos/user/y/yian/MuonEG/MuonEG_Run2018D/210420_163955/0000/tree_38.root\n'
p103
aS'root://eosuser.cern.ch//eos/user/y/yian/MuonEG/MuonEG_Run2018D/210420_163955/0000/tree_39.root\n'
p104
aS'root://eosuser.cern.ch//eos/user/y/yian/MuonEG/MuonEG_Run2018D/210420_163955/0000/tree_4.root\n'
p105
aS'root://eosuser.cern.ch//eos/user/y/yian/MuonEG/MuonEG_Run2018D/210420_163955/0000/tree_40.root\n'
p106
aS'root://eosuser.cern.ch//eos/user/y/yian/MuonEG/MuonEG_Run2018D/210420_163955/0000/tree_41.root\n'
p107
aS'root://eosuser.cern.ch//eos/user/y/yian/MuonEG/MuonEG_Run2018D/210420_163955/0000/tree_42.root\n'
p108
aS'root://eosuser.cern.ch//eos/user/y/yian/MuonEG/MuonEG_Run2018D/210420_163955/0000/tree_43.root\n'
p109
aS'root://eosuser.cern.ch//eos/user/y/yian/MuonEG/MuonEG_Run2018D/210420_163955/0000/tree_44.root\n'
p110
aS'root://eosuser.cern.ch//eos/user/y/yian/MuonEG/MuonEG_Run2018D/210420_163955/0000/tree_45.root\n'
p111
aS'root://eosuser.cern.ch//eos/user/y/yian/MuonEG/MuonEG_Run2018D/210420_163955/0000/tree_46.root\n'
p112
aS'root://eosuser.cern.ch//eos/user/y/yian/MuonEG/MuonEG_Run2018D/210420_163955/0000/tree_47.root\n'
p113
aS'root://eosuser.cern.ch//eos/user/y/yian/MuonEG/MuonEG_Run2018D/210420_163955/0000/tree_48.root\n'
p114
aS'root://eosuser.cern.ch//eos/user/y/yian/MuonEG/MuonEG_Run2018D/210420_163955/0000/tree_49.root\n'
p115
aS'root://eosuser.cern.ch//eos/user/y/yian/MuonEG/MuonEG_Run2018D/210420_163955/0000/tree_5.root\n'
p116
aS'root://eosuser.cern.ch//eos/user/y/yian/MuonEG/MuonEG_Run2018D/210420_163955/0000/tree_50.root\n'
p117
aS'root://eosuser.cern.ch//eos/user/y/yian/MuonEG/MuonEG_Run2018D/210420_163955/0000/tree_51.root\n'
p118
aS'root://eosuser.cern.ch//eos/user/y/yian/MuonEG/MuonEG_Run2018D/210420_163955/0000/tree_52.root\n'
p119
aS'root://eosuser.cern.ch//eos/user/y/yian/MuonEG/MuonEG_Run2018D/210420_163955/0000/tree_53.root\n'
p120
aS'root://eosuser.cern.ch//eos/user/y/yian/MuonEG/MuonEG_Run2018D/210420_163955/0000/tree_6.root\n'
p121
aS'root://eosuser.cern.ch//eos/user/y/yian/MuonEG/MuonEG_Run2018D/210420_163955/0000/tree_7.root\n'
p122
aS'root://eosuser.cern.ch//eos/user/y/yian/MuonEG/MuonEG_Run2018D/210420_163955/0000/tree_8.root\n'
p123
aS'root://eosuser.cern.ch//eos/user/y/yian/MuonEG/MuonEG_Run2018D/210420_163955/0000/tree_9.root\n'
p124
asg66
I-1
sbsg37
g3
(g9
g5
NtRp125
(dp126
g12
I00
sS'scriptArgs'
p127
(lp128
S'isdata=data'
p129
aS'year=2018'
p130
asg13
S''
sg14
g15
((lp131
g127
aS'scriptExe'
p132
aS'pluginName'
p133
aS'sendPythonFolder'
p134
aS'allowUndistributedCMSSW'
p135
aS'psetName'
p136
aS'inputFiles'
p137
atRp138
sg20
g37
sg132
S'./WWG_crab_script.sh'
p139
sg21
(dp140
sg134
I01
sg133
S'Analysis'
p141
sg23
g15
((ltRp142
sg135
I01
sg136
S'PSet.py'
p143
sg26
Nsg137
(lp144
S'../../../scripts/haddnano.py'
p145
aS'../WWG_selector/WWG_postproc.py'
p146
aS'../WWG_selector/WWG_Module.py'
p147
aS'../WWG_selector/WWG_keep_and_drop.txt'
p148
aS'../WWG_selector/WWG_output_branch.txt'
p149
aS'../WWG_selector/DAS_filesearch.py'
p150
asbsbsS'voGroup'
p151
S''
sS'Server'
p152
S'cmsweb.cern.ch'
p153
sS'instance'
p154
S'prod'
p155
sS'RequestName'
p156
V210422_083954:yian_crab_MuonEG_Run2018D_lumimask
p157
sS'voRole'
p158
S'NULL'
p159
sS'Port'
p160
S''
s.