(dp1
S'OriginalConfig'
p2
ccopy_reg
_reconstructor
p3
(cWMCore.Configuration
Configuration
p4
c__builtin__
object
p5
NtRp6
(dp7
S'Site'
p8
g3
(cWMCore.Configuration
ConfigSection
p9
g5
NtRp10
(dp11
S'_internal_skipChecks'
p12
I00
sS'_internal_documentation'
p13
S''
sS'_internal_settings'
p14
c__builtin__
set
p15
((lp16
S'whitelist'
p17
aS'storageSite'
p18
atRp19
sS'_internal_name'
p20
g8
sS'_internal_docstrings'
p21
(dp22
sS'_internal_children'
p23
g15
((ltRp24
sg18
S'T3_CH_CERNBOX'
p25
sS'_internal_parent_ref'
p26
Nsg17
(lp27
S'T2_US_MIT'
p28
aS'T2_US_Wisconsin'
p29
aS'T2_US_Purdue'
p30
aS'T2_US_UCSD'
p31
aS'T2_US_Caltech'
p32
aS'T2_US_Nebraska'
p33
asbsS'_internal_sections'
p34
(lp35
S'General'
p36
aS'JobType'
p37
aS'Data'
p38
ag8
asg36
g3
(g9
g5
NtRp39
(dp40
S'workArea'
p41
S'crab2016'
p42
sg12
I00
sg13
S''
sg14
g15
((lp43
g41
aS'transferLogs'
p44
aS'requestName'
p45
atRp46
sg20
g36
sg21
(dp47
sg23
g15
((ltRp48
sg45
S'WJetsToLNu_TuneCP5_13TeV-madgraphMLM-pythia8_2016'
p49
sg26
Nsg44
I00
sbsS'_internal_webapps'
p50
(lp51
sS'_internal_components'
p52
(lp53
sg38
g3
(g9
g5
NtRp54
(dp55
S'inputDataset'
p56
S'/WJetsToLNu_TuneCP5_13TeV-madgraphMLM-pythia8/RunIISummer20UL16NanoAODv9-106X_mcRun2_asymptotic_v17-v1/NANOAODSIM'
p57
sS'allowNonValidInputDataset'
p58
I01
sg12
I00
sS'splitting'
p59
S'FileBased'
p60
sS'unitsPerJob'
p61
I1
sg13
S''
sg14
g15
((lp62
g56
ag58
aS'publication'
p63
ag61
aS'ignoreLocality'
p64
aS'inputDBS'
p65
ag59
aS'outputDatasetTag'
p66
atRp67
sg64
I01
sg20
g38
sg65
S'global'
p68
sg21
(dp69
sg66
g49
sg23
g15
((ltRp70
sg26
Nsg63
I00
sbsg37
g3
(g9
g5
NtRp71
(dp72
g12
I00
sS'scriptArgs'
p73
(lp74
S'isdata=MC'
p75
aS'year=2016'
p76
asg13
S''
sg14
g15
((lp77
g73
aS'scriptExe'
p78
aS'pluginName'
p79
aS'sendPythonFolder'
p80
aS'allowUndistributedCMSSW'
p81
aS'psetName'
p82
aS'inputFiles'
p83
atRp84
sg20
g37
sg78
S'./WWG_crab_script.sh'
p85
sg21
(dp86
sg80
I01
sg79
S'Analysis'
p87
sg23
g15
((ltRp88
sg81
I01
sg82
S'PSet.py'
p89
sg26
Nsg83
(lp90
S'../../../scripts/haddnano.py'
p91
aS'../WWG_fakelepton/WWG_postproc.py'
p92
aS'../WWG_fakelepton/WWGfakelepton_Module.py'
p93
aS'../WWG_fakelepton/WWG_keep_and_drop.txt'
p94
aS'../WWG_fakelepton/WWG_output_branch.txt'
p95
aS'../WWG_fakelepton/DAS_filesearch.py'
p96
asbsbsS'voGroup'
p97
S''
sS'Server'
p98
S'cmsweb.cern.ch'
p99
sS'instance'
p100
S'prod'
p101
sS'RequestName'
p102
V211125_115330:yian_crab_WJetsToLNu_TuneCP5_13TeV-madgraphMLM-pythia8_2016
p103
sS'voRole'
p104
S'NULL'
p105
sS'Port'
p106
S''
s.