ccopy_reg
_reconstructor
p0
(cFWCore.ParameterSet.Config
Process
p1
c__builtin__
object
p2
Ntp3
Rp4
(dp5
S'_Process__sequences'
p6
(dp7
sS'_Process__services'
p8
(dp9
sS'_Process__source'
p10
g0
(cFWCore.ParameterSet.Modules
Source
p11
g2
Ntp12
Rp13
(dp14
S'_Parameterizable__parameterNames'
p15
(lp16
S'fileNames'
p17
asS'_isFrozen'
p18
I00
sS'_isModified'
p19
I01
sS'_lineNumber'
p20
I196
sS'_filename'
p21
S'/cvmfs/cms.cern.ch/slc7_amd64_gcc820/cms/cmssw/CMSSW_10_6_20/python/FWCore/ParameterSet/Modules.py'
p22
sg17
g0
(cFWCore.ParameterSet.Types
vstring
p23
c__builtin__
list
p24
(lp25
S'../../NanoAOD/test/lzma.root'
p26
atp27
Rp28
(dp29
g18
I00
sS'_ParameterTypeBase__isTracked'
p30
I00
sg19
I01
sS'_nPerLine'
p31
I1
sbsS'_TypedParameterizable__type'
p32
S'PoolSource'
p33
sbsS'_Process__aliases'
p34
(dp35
sS'out'
p36
g0
(cFWCore.ParameterSet.SequenceTypes
EndPath
p37
g2
Ntp38
Rp39
(dp40
g18
I00
sS'_seq'
p41
g0
(cFWCore.ParameterSet.SequenceTypes
_SequenceCollection
p42
g2
Ntp43
Rp44
(dp45
S'_collection'
p46
(lp47
g0
(cFWCore.ParameterSet.Modules
OutputModule
p48
g2
Ntp49
Rp50
(dp51
g15
(lp52
S'fileName'
p53
asg18
I00
sg19
I00
sg20
I16
sg21
S'/afs/cern.ch/work/y/yian/work/GZ/CMSSW_10_6_20/src/PhysicsTools/NanoAODTools/WWG/2016pre/fakelepton_crab/PSet.py'
p54
sg53
g0
(cFWCore.ParameterSet.Types
string
p55
g2
Ntp56
Rp57
(dp58
g18
I00
sg30
I00
sS'_value'
p59
S'tree.root'
p60
sg19
I00
sbsS'_Labelable__label'
p61
S'output'
p62
sg32
S'PoolOutputModule'
p63
sbasbsg61
g36
sg19
I00
sS'_tasks'
p64
g0
(cFWCore.ParameterSet.OrderedSet
OrderedSet
p65
g2
Ntp66
Rp67
(dp68
S'map'
p69
(dp70
sS'end'
p71
(lp72
Nag72
ag72
asbsbsS'_Process__psets'
p73
(dp74
S'maxEvents'
p75
g0
(cFWCore.ParameterSet.Types
PSet
p76
g2
Ntp77
Rp78
(dp79
g18
I00
sg30
I00
sg19
I00
sg15
(lp80
S'input'
p81
asg61
g75
sg81
g0
(cFWCore.ParameterSet.Types
int32
p82
g2
Ntp83
Rp84
(dp85
g18
I00
sg30
I00
sg59
I10
sg19
I00
sbsbssS'_Process__essources'
p86
(dp87
sg33
g13
sg75
g78
sS'source'
p88
g13
sS'_Process__vpsets'
p89
(dp90
sS'_Process__name'
p91
S'NANO'
p92
sS'_Process__subProcesses'
p93
(lp94
sS'_Process__switchproducers'
p95
(dp96
sS'_cloneToObjectDict'
p97
(dp98
I140539836067792
g78
sI140539836067728
g50
sI140539836219600
g39
ssS'_Process__esprefers'
p99
(dp100
sS'_Process__schedule'
p101
Nsg62
g50
sS'_Process__outputmodules'
p102
(dp103
g62
g50
ssS'_Process__analyzers'
p104
(dp105
sS'_Process__InExtendCall'
p106
I00
sS'_Process__modifiers'
p107
(tsS'_Process__producers'
p108
(dp109
sS'_Process__filters'
p110
(dp111
sS'_Process__looper'
p112
NsS'_Process__endpaths'
p113
g0
(cFWCore.ParameterSet.DictTypes
SortedKeysDict
p114
c__builtin__
dict
p115
(dp116
g36
g39
stp117
Rp118
(dp119
S'list'
p120
(lp121
g36
asbsS'_Process__esproducers'
p122
(dp123
sS'_Process__tasks'
p124
(dp125
sS'_Process__paths'
p126
g0
(g114
g115
(dp127
tp128
Rp129
(dp130
g120
(lp131
sbsS'_Process__partialschedules'
p132
(dp133
sS'_Process__isStrict'
p134
I00
sb.