(dp1
S'OriginalConfig'
p2
ccopy_reg
_reconstructor
p3
(cWMCore.Configuration
Configuration
p4
c__builtin__
object
p5
NtRp6
(dp7
S'Site'
p8
g3
(cWMCore.Configuration
ConfigSection
p9
g5
NtRp10
(dp11
S'_internal_skipChecks'
p12
I00
sS'_internal_documentation'
p13
S''
sS'_internal_settings'
p14
c__builtin__
set
p15
((lp16
S'whitelist'
p17
aS'storageSite'
p18
atRp19
sS'_internal_name'
p20
g8
sS'_internal_docstrings'
p21
(dp22
sS'_internal_children'
p23
g15
((ltRp24
sg18
S'T3_CH_CERNBOX'
p25
sS'_internal_parent_ref'
p26
Nsg17
(lp27
S'T2_US_MIT'
p28
aS'T2_US_Wisconsin'
p29
aS'T2_US_Purdue'
p30
aS'T2_US_UCSD'
p31
aS'T2_US_Florida'
p32
aS'T2_US_Caltech'
p33
aS'T2_US_Nebraska'
p34
asbsS'_internal_sections'
p35
(lp36
S'General'
p37
aS'JobType'
p38
aS'Data'
p39
ag8
asg37
g3
(g9
g5
NtRp40
(dp41
S'workArea'
p42
S'crab2018'
p43
sg12
I00
sg13
S''
sg14
g15
((lp44
g42
aS'transferLogs'
p45
aS'requestName'
p46
atRp47
sg20
g37
sg21
(dp48
sg23
g15
((ltRp49
sg46
S'DoubleMuon_Run2018A_2018'
p50
sg26
Nsg45
I01
sbsS'_internal_webapps'
p51
(lp52
sS'_internal_components'
p53
(lp54
sg39
g3
(g9
g5
NtRp55
(dp56
S'inputDataset'
p57
S'/DoubleMuon/Run2018A-UL2018_MiniAODv1_NanoAODv2-v1/NANOAOD'
p58
sS'allowNonValidInputDataset'
p59
I01
sg12
I00
sS'splitting'
p60
S'FileBased'
p61
sS'unitsPerJob'
p62
I1
sg13
S''
sg14
g15
((lp63
g57
ag59
aS'publication'
p64
ag62
aS'ignoreLocality'
p65
ag60
aS'inputDBS'
p66
aS'lumiMask'
p67
aS'outputDatasetTag'
p68
atRp69
sg65
I01
sg20
g39
sg66
S'global'
p70
sg21
(dp71
sg68
g50
sg23
g15
((ltRp72
sg26
Nsg67
S'https://cms-service-dqm.web.cern.ch/cms-service-dqm/CAF/certification/Collisions18/13TeV/Legacy_2018/Cert_314472-325175_13TeV_Legacy2018_Collisions18_JSON.txt'
p73
sg64
I00
sbsg38
g3
(g9
g5
NtRp74
(dp75
g12
I00
sS'scriptArgs'
p76
(lp77
S'kind=data'
p78
aS'mode=crab'
p79
aS'year=2018'
p80
aS'which_data=DoubleMuon'
p81
asg13
S''
sg14
g15
((lp82
g76
aS'scriptExe'
p83
aS'pluginName'
p84
aS'sendPythonFolder'
p85
aS'allowUndistributedCMSSW'
p86
aS'psetName'
p87
aS'inputFiles'
p88
atRp89
sg20
g38
sg83
S'../WWG_selector/WWG_crab_script.sh'
p90
sg21
(dp91
sg85
I01
sg84
S'Analysis'
p92
sg23
g15
((ltRp93
sg86
I01
sg87
S'PSet.py'
p94
sg26
Nsg88
(lp95
S'../scripts/haddnano.py'
p96
aS'../WWG_selector/WWG_postproc.py'
p97
aS'../WWG_selector/WWG_Module.py'
p98
aS'../WWG_selector/branches/WWG_keep_and_drop_2018.txt'
p99
aS'../WWG_selector/branches/WWG_outbranch_data_2018.txt'
p100
asbsbsS'voGroup'
p101
S''
sS'Server'
p102
S'cmsweb-k8s-prod.cern.ch'
p103
sS'instance'
p104
S'prod'
p105
sS'RequestName'
p106
V210316_052242:yian_crab_DoubleMuon_Run2018A_2018
p107
sS'voRole'
p108
S'NULL'
p109
sS'Port'
p110
S''
s.