(dp1
S'OriginalConfig'
p2
ccopy_reg
_reconstructor
p3
(cWMCore.Configuration
Configuration
p4
c__builtin__
object
p5
NtRp6
(dp7
S'Site'
p8
g3
(cWMCore.Configuration
ConfigSection
p9
g5
NtRp10
(dp11
S'_internal_skipChecks'
p12
I00
sS'_internal_documentation'
p13
S''
sS'_internal_settings'
p14
c__builtin__
set
p15
((lp16
S'whitelist'
p17
aS'storageSite'
p18
atRp19
sS'_internal_name'
p20
g8
sS'_internal_docstrings'
p21
(dp22
sS'_internal_children'
p23
g15
((ltRp24
sg18
S'T2_CH_CERN'
p25
sS'_internal_parent_ref'
p26
Nsg17
(lp27
S'T2_US_MIT'
p28
aS'T2_US_Wisconsin'
p29
aS'T2_US_Purdue'
p30
aS'T2_US_UCSD'
p31
aS'T2_US_Caltech'
p32
aS'T2_US_Nebraska'
p33
asbsS'_internal_sections'
p34
(lp35
S'General'
p36
aS'JobType'
p37
aS'Data'
p38
ag8
asg36
g3
(g9
g5
NtRp39
(dp40
S'workArea'
p41
S'crab2017'
p42
sg12
I00
sg13
S''
sg14
g15
((lp43
g41
aS'transferLogs'
p44
aS'requestName'
p45
atRp46
sg20
g36
sg21
(dp47
sg23
g15
((ltRp48
sg45
S'MET_Run2017F'
p49
sg26
Nsg44
I00
sbsS'_internal_webapps'
p50
(lp51
sS'_internal_components'
p52
(lp53
sg38
g3
(g9
g5
NtRp54
(dp55
S'inputDataset'
p56
S'/MET/Run2017F-UL2017_MiniAODv2_NanoAODv9-v1/NANOAOD'
p57
sS'allowNonValidInputDataset'
p58
I01
sg12
I00
sS'splitting'
p59
S'FileBased'
p60
sS'unitsPerJob'
p61
I1
sg13
S''
sg14
g15
((lp62
g56
ag58
aS'publication'
p63
ag61
aS'ignoreLocality'
p64
ag59
aS'inputDBS'
p65
aS'lumiMask'
p66
aS'outputDatasetTag'
p67
atRp68
sg64
I01
sg20
g38
sg65
S'global'
p69
sg21
(dp70
sg67
g49
sg23
g15
((ltRp71
sg26
Nsg66
S'/afs/cern.ch/cms/CAF/CMSCOMM/COMM_DQM/certification/Collisions17/13TeV/Legacy_2017/Cert_294927-306462_13TeV_UL2017_Collisions17_GoldenJSON.txt'
p72
sg63
I00
sbsg37
g3
(g9
g5
NtRp73
(dp74
g12
I00
sS'scriptArgs'
p75
(lp76
S'isdata=data'
p77
aS'year=2017'
p78
aS'era=F'
p79
asg13
S''
sg14
g15
((lp80
g75
aS'scriptExe'
p81
aS'pluginName'
p82
aS'sendPythonFolder'
p83
aS'allowUndistributedCMSSW'
p84
aS'psetName'
p85
aS'inputFiles'
p86
atRp87
sg20
g37
sg81
S'./WWG_crab_script.sh'
p88
sg21
(dp89
sg83
I01
sg82
S'Analysis'
p90
sg23
g15
((ltRp91
sg84
I01
sg85
S'PSet.py'
p92
sg26
Nsg86
(lp93
S'../../../scripts/haddnano.py'
p94
aS'../WWG_selector/WWG_postproc.py'
p95
aS'../WWG_selector/WWG_Module.py'
p96
aS'../WWG_selector/WWG_keep_and_drop.txt'
p97
aS'../WWG_selector/WWG_output_branch.txt'
p98
aS'../WWG_selector/DAS_filesearch.py'
p99
asbsbsS'voGroup'
p100
S''
sS'Server'
p101
S'cmsweb.cern.ch'
p102
sS'instance'
p103
S'prod'
p104
sS'RequestName'
p105
V211125_095912:yian_crab_MET_Run2017F
p106
sS'voRole'
p107
S'NULL'
p108
sS'Port'
p109
S''
s.