(dp1
S'OriginalConfig'
p2
ccopy_reg
_reconstructor
p3
(cWMCore.Configuration
Configuration
p4
c__builtin__
object
p5
NtRp6
(dp7
S'Site'
p8
g3
(cWMCore.Configuration
ConfigSection
p9
g5
NtRp10
(dp11
S'_internal_skipChecks'
p12
I00
sS'_internal_documentation'
p13
S''
sS'_internal_settings'
p14
c__builtin__
set
p15
((lp16
S'whitelist'
p17
aS'storageSite'
p18
atRp19
sS'_internal_name'
p20
g8
sS'_internal_docstrings'
p21
(dp22
sS'_internal_children'
p23
g15
((ltRp24
sg18
S'T3_CH_CERNBOX'
p25
sS'_internal_parent_ref'
p26
Nsg17
(lp27
S'T2_US_MIT'
p28
aS'T2_US_Wisconsin'
p29
aS'T2_US_Purdue'
p30
aS'T2_US_UCSD'
p31
aS'T2_US_Caltech'
p32
aS'T2_US_Nebraska'
p33
asbsS'_internal_sections'
p34
(lp35
S'General'
p36
aS'JobType'
p37
aS'Data'
p38
ag8
asg36
g3
(g9
g5
NtRp39
(dp40
S'workArea'
p41
S'crab2016'
p42
sg12
I00
sg13
S''
sg14
g15
((lp43
g41
aS'transferLogs'
p44
aS'requestName'
p45
atRp46
sg20
g36
sg21
(dp47
sg23
g15
((ltRp48
sg45
S'WJetsToLNu_TuneCP5_13TeV-madgraphMLM-pythia8_2016'
p49
sg26
Nsg44
I00
sbsS'_internal_webapps'
p50
(lp51
sS'_internal_components'
p52
(lp53
sg38
g3
(g9
g5
NtRp54
(dp55
S'inputDataset'
p56
S'/WJetsToLNu_TuneCP5_13TeV-madgraphMLM-pythia8/RunIISummer20UL16NanoAODAPVv9-20UL16APVJMENano_106X_mcRun2_asymptotic_preVFP_v11-v2/NANOAODSIM'
p57
sS'allowNonValidInputDataset'
p58
I01
sg12
I00
sS'splitting'
p59
S'FileBased'
p60
sS'unitsPerJob'
p61
I1
sg13
S''
sg14
g15
((lp62
g56
ag58
aS'publication'
p63
ag61
aS'ignoreLocality'
p64
aS'inputDBS'
p65
ag59
aS'outputDatasetTag'
p66
atRp67
sg64
I01
sg20
g38
sg65
S'global'
p68
sg21
(dp69
sg66
g49
sg23
g15
((ltRp70
sg26
Nsg63
I00
sbsg37
g3
(g9
g5
NtRp71
(dp72
g12
I00
sS'scriptArgs'
p73
(lp74
S'isdata=MC'
p75
aS'year=2016'
p76
aS'era=B'
p77
asg13
S''
sg14
g15
((lp78
g73
aS'scriptExe'
p79
aS'pluginName'
p80
aS'sendPythonFolder'
p81
aS'allowUndistributedCMSSW'
p82
aS'psetName'
p83
aS'inputFiles'
p84
atRp85
sg20
g37
sg79
S'./WWG_crab_script.sh'
p86
sg21
(dp87
sg81
I01
sg80
S'Analysis'
p88
sg23
g15
((ltRp89
sg82
I01
sg83
S'PSet.py'
p90
sg26
Nsg84
(lp91
S'../../../scripts/haddnano.py'
p92
aS'../WWG_selector/WWG_postproc.py'
p93
aS'../WWG_selector/WWG_Module.py'
p94
aS'../WWG_selector/WWG_keep_and_drop.txt'
p95
aS'../WWG_selector/WWG_output_branch.txt'
p96
aS'../WWG_selector/DAS_filesearch.py'
p97
asbsbsS'voGroup'
p98
S''
sS'Server'
p99
S'cmsweb.cern.ch'
p100
sS'instance'
p101
S'prod'
p102
sS'RequestName'
p103
V211125_061427:yian_crab_WJetsToLNu_TuneCP5_13TeV-madgraphMLM-pythia8_2016
p104
sS'voRole'
p105
S'NULL'
p106
sS'Port'
p107
S''
s.